target datalayout = "e-m:e-p270:32:32-p271:32:32-p272:64:64-i64:64-i128:128-f80:128-n8:16:32:64-S128"
target triple = "x86_64-unknown-linux-gnu"

; Function Attrs: nounwind sspstrong uwtable
define dso_local i32 @bdrv_co_is_allocated_above(ptr noundef %bs, ptr noundef %base, i1 noundef zeroext %include_base, i64 noundef %offset, i64 noundef %bytes, ptr noundef %pnum) #0 {
entry:
  %retval = alloca i32, align 4
  %bs.addr = alloca ptr, align 8
  %base.addr = alloca ptr, align 8
  %include_base.addr = alloca i8, align 1
  %offset.addr = alloca i64, align 8
  %bytes.addr = alloca i64, align 8
  %pnum.addr = alloca ptr, align 8
  %depth = alloca i32, align 4
  %ret = alloca i32, align 4
  store ptr %bs, ptr %bs.addr, align 8
  store ptr %base, ptr %base.addr, align 8
  %frombool = zext i1 %include_base to i8
  store i8 %frombool, ptr %include_base.addr, align 1
  store i64 %offset, ptr %offset.addr, align 8
  store i64 %bytes, ptr %bytes.addr, align 8
  store ptr %pnum, ptr %pnum.addr, align 8
  br label %do.body

do.body:                                          ; preds = %entry
  br label %do.end

do.end:                                           ; preds = %do.body
  %0 = load ptr, ptr %bs.addr, align 8
  %1 = load ptr, ptr %base.addr, align 8
  %2 = load i8, ptr %include_base.addr, align 1
  %tobool = trunc i8 %2 to i1
  %3 = load i64, ptr %offset.addr, align 8
  %4 = load i64, ptr %bytes.addr, align 8
  %5 = load ptr, ptr %pnum.addr, align 8
  %call = call i32 @bdrv_co_common_block_status_above(ptr noundef %0, ptr noundef %1, i1 noundef zeroext %tobool, i1 noundef zeroext false, i64 noundef %3, i64 noundef %4, ptr noundef %5, ptr noundef null, ptr noundef null, ptr noundef %depth)
  store i32 %call, ptr %ret, align 4
  %6 = load i32, ptr %ret, align 4
  %cmp = icmp slt i32 %6, 0
  br i1 %cmp, label %if.then, label %if.end

if.then:                                          ; preds = %do.end
  %7 = load i32, ptr %ret, align 4
  store i32 %7, ptr %retval, align 4
  br label %return

if.end:                                           ; preds = %do.end
  %8 = load i32, ptr %ret, align 4
  %and = and i32 %8, 16
  %tobool1 = icmp ne i32 %and, 0
  br i1 %tobool1, label %if.then2, label %if.end3

if.then2:                                         ; preds = %if.end
  %9 = load i32, ptr %depth, align 4
  store i32 %9, ptr %retval, align 4
  br label %return

if.end3:                                          ; preds = %if.end
  store i32 0, ptr %retval, align 4
  br label %return

return:                                           ; preds = %if.end3, %if.then2, %if.then
  %10 = load i32, ptr %retval, align 4
  ret i32 %10
}