; Function Attrs: nounwind sspstrong uwtable
define dso_local i32 @bdrv_co_is_allocated_above(ptr noundef %bs, ptr noundef %base, i1 noundef zeroext %include_base, i64 noundef %offset, i64 noundef %bytes, ptr noundef %pnum) #0 {
entry:
  %depth = alloca i32, align 4
  %call = call i32 @bdrv_co_common_block_status_above(ptr noundef %bs, ptr noundef %base, i1 noundef zeroext %include_base, i1 noundef zeroext false, i64 noundef %offset, i64 noundef %bytes, ptr noundef %pnum, ptr noundef null, ptr noundef null, ptr noundef nonnull %depth)
  %cmp = icmp slt i32 %call, 0
  %and = and i32 %call, 16
  %tobool1.not = icmp eq i32 %and, 0
  %0 = load i32, ptr %depth, align 4
  %spec.select = select i1 %tobool1.not, i32 0, i32 %0
  %retval.0 = select i1 %cmp, i32 %call, i32 %spec.select
  ret i32 %retval.0
}